target datalayout = "e-m:e-p270:32:32-p271:32:32-p272:64:64-i64:64-i128:128-f80:128-n8:16:32:64-S128"
target triple = "x86_64-pc-linux-gnu"

%struct.FunctionCallInfoBaseData = type { ptr, ptr, ptr, i32, i8, i16, [0 x %struct.NullableDatum] }
%struct.NullableDatum = type { i64, i8 }

@.str.2 = private unnamed_addr constant [6 x i8] c"int.c\00", align 1
@.str.6 = private unnamed_addr constant [55 x i8] c"invalid preceding or following size in window function\00", align 1
@__func__.in_range_int4_int4 = private unnamed_addr constant [19 x i8] c"in_range_int4_int4\00", align 1

; Function Attrs: inlinehint nounwind uwtable
define internal i64 @BoolGetDatum(i1 noundef zeroext %0) #2 {
  %2 = alloca i8, align 1
  %3 = zext i1 %0 to i8
  store i8 %3, ptr %2, align 1
  %4 = load i8, ptr %2, align 1, !range !7, !noundef !8
  %5 = trunc i8 %4 to i1
  %6 = select i1 %5, i32 1, i32 0
  %7 = sext i32 %6 to i64
  ret i64 %7
}

; Function Attrs: inlinehint nounwind uwtable
define internal zeroext i1 @pg_add_s32_overflow(i32 noundef %0, i32 noundef %1, ptr noundef %2) #2 {
  %4 = alloca i32, align 4
  %5 = alloca i32, align 4
  %6 = alloca ptr, align 8
  store i32 %0, ptr %4, align 4
  store i32 %1, ptr %5, align 4
  store ptr %2, ptr %6, align 8
  %7 = load i32, ptr %4, align 4
  %8 = load i32, ptr %5, align 4
  %9 = load ptr, ptr %6, align 8
  %10 = call { i32, i1 } @llvm.sadd.with.overflow.i32(i32 %7, i32 %8)
  %11 = extractvalue { i32, i1 } %10, 1
  %12 = extractvalue { i32, i1 } %10, 0
  store i32 %12, ptr %9, align 4
  ret i1 %11
}

; Function Attrs: inlinehint nounwind uwtable
define internal zeroext i1 @DatumGetBool(i64 noundef %0) #2 {
  %2 = alloca i64, align 8
  store i64 %0, ptr %2, align 8
  %3 = load i64, ptr %2, align 8
  %4 = icmp ne i64 %3, 0
  ret i1 %4
}

; Function Attrs: inlinehint nounwind uwtable
define internal i32 @DatumGetInt32(i64 noundef %0) #2 {
  %2 = alloca i64, align 8
  store i64 %0, ptr %2, align 8
  %3 = load i64, ptr %2, align 8
  %4 = trunc i64 %3 to i32
  ret i32 %4
}

; Function Attrs: nounwind uwtable
define dso_local i64 @in_range_int4_int4(ptr noundef %0) #0 {
  %2 = alloca i64, align 8
  %3 = alloca ptr, align 8
  %4 = alloca i32, align 4
  %5 = alloca i32, align 4
  %6 = alloca i32, align 4
  %7 = alloca i8, align 1
  %8 = alloca i8, align 1
  %9 = alloca i32, align 4
  %10 = alloca i32, align 4
  store ptr %0, ptr %3, align 8
  call void @llvm.lifetime.start.p0(i64 4, ptr %4) #10
  %11 = load ptr, ptr %3, align 8
  %12 = getelementptr inbounds nuw %struct.FunctionCallInfoBaseData, ptr %11, i32 0, i32 6
  %13 = getelementptr inbounds [0 x %struct.NullableDatum], ptr %12, i64 0, i64 0
  %14 = getelementptr inbounds nuw %struct.NullableDatum, ptr %13, i32 0, i32 0
  %15 = load i64, ptr %14, align 8
  %16 = call i32 @DatumGetInt32(i64 noundef %15)
  store i32 %16, ptr %4, align 4
  call void @llvm.lifetime.start.p0(i64 4, ptr %5) #10
  %17 = load ptr, ptr %3, align 8
  %18 = getelementptr inbounds nuw %struct.FunctionCallInfoBaseData, ptr %17, i32 0, i32 6
  %19 = getelementptr inbounds [0 x %struct.NullableDatum], ptr %18, i64 0, i64 1
  %20 = getelementptr inbounds nuw %struct.NullableDatum, ptr %19, i32 0, i32 0
  %21 = load i64, ptr %20, align 8
  %22 = call i32 @DatumGetInt32(i64 noundef %21)
  store i32 %22, ptr %5, align 4
  call void @llvm.lifetime.start.p0(i64 4, ptr %6) #10
  %23 = load ptr, ptr %3, align 8
  %24 = getelementptr inbounds nuw %struct.FunctionCallInfoBaseData, ptr %23, i32 0, i32 6
  %25 = getelementptr inbounds [0 x %struct.NullableDatum], ptr %24, i64 0, i64 2
  %26 = getelementptr inbounds nuw %struct.NullableDatum, ptr %25, i32 0, i32 0
  %27 = load i64, ptr %26, align 8
  %28 = call i32 @DatumGetInt32(i64 noundef %27)
  store i32 %28, ptr %6, align 4
  call void @llvm.lifetime.start.p0(i64 1, ptr %7) #10
  %29 = load ptr, ptr %3, align 8
  %30 = getelementptr inbounds nuw %struct.FunctionCallInfoBaseData, ptr %29, i32 0, i32 6
  %31 = getelementptr inbounds [0 x %struct.NullableDatum], ptr %30, i64 0, i64 3
  %32 = getelementptr inbounds nuw %struct.NullableDatum, ptr %31, i32 0, i32 0
  %33 = load i64, ptr %32, align 8
  %34 = call zeroext i1 @DatumGetBool(i64 noundef %33)
  %35 = zext i1 %34 to i8
  store i8 %35, ptr %7, align 1
  call void @llvm.lifetime.start.p0(i64 1, ptr %8) #10
  %36 = load ptr, ptr %3, align 8
  %37 = getelementptr inbounds nuw %struct.FunctionCallInfoBaseData, ptr %36, i32 0, i32 6
  %38 = getelementptr inbounds [0 x %struct.NullableDatum], ptr %37, i64 0, i64 4
  %39 = getelementptr inbounds nuw %struct.NullableDatum, ptr %38, i32 0, i32 0
  %40 = load i64, ptr %39, align 8
  %41 = call zeroext i1 @DatumGetBool(i64 noundef %40)
  %42 = zext i1 %41 to i8
  store i8 %42, ptr %8, align 1
  call void @llvm.lifetime.start.p0(i64 4, ptr %9) #10
  %43 = load i32, ptr %6, align 4
  %44 = icmp slt i32 %43, 0
  br i1 %44, label %45, label %57

45:                                               ; preds = %1
  br label %46

46:                                               ; preds = %45
  br i1 true, label %47, label %49

47:                                               ; preds = %46
  %48 = call zeroext i1 @errstart_cold(i32 noundef 21, ptr noundef null) #12
  br i1 %48, label %51, label %54

49:                                               ; preds = %46
  %50 = call zeroext i1 @errstart(i32 noundef 21, ptr noundef null)
  br i1 %50, label %51, label %54

51:                                               ; preds = %49, %47
  %52 = call i32 @errcode(i32 noundef 50593922)
  %53 = call i32 (ptr, ...) @errmsg(ptr noundef @.str.6)
  call void @errfinish(ptr noundef @.str.2, i32 noundef 635, ptr noundef @__func__.in_range_int4_int4)
  br label %54

54:                                               ; preds = %51, %49, %47
  unreachable

55:                                               ; No predecessors!
  br label %56

56:                                               ; preds = %55
  br label %57

57:                                               ; preds = %56, %1
  %58 = load i8, ptr %7, align 1, !range !7, !noundef !8
  %59 = trunc i8 %58 to i1
  br i1 %59, label %60, label %63

60:                                               ; preds = %57
  %61 = load i32, ptr %6, align 4
  %62 = sub i32 0, %61
  store i32 %62, ptr %6, align 4
  br label %63

63:                                               ; preds = %60, %57
  %64 = load i32, ptr %5, align 4
  %65 = load i32, ptr %6, align 4
  %66 = call zeroext i1 @pg_add_s32_overflow(i32 noundef %64, i32 noundef %65, ptr noundef %9)
  %67 = zext i1 %66 to i32
  %68 = icmp ne i32 %67, 0
  %69 = zext i1 %68 to i32
  %70 = sext i32 %69 to i64
  %71 = call i64 @llvm.expect.i64(i64 %70, i64 0)
  %72 = icmp ne i64 %71, 0
  br i1 %72, label %73, label %89

73:                                               ; preds = %63
  %74 = load i8, ptr %7, align 1, !range !7, !noundef !8
  %75 = trunc i8 %74 to i1
  br i1 %75, label %76, label %81

76:                                               ; preds = %73
  %77 = load i8, ptr %8, align 1, !range !7, !noundef !8
  %78 = trunc i8 %77 to i1
  %79 = xor i1 %78, true
  %80 = zext i1 %79 to i32
  br label %85

81:                                               ; preds = %73
  %82 = load i8, ptr %8, align 1, !range !7, !noundef !8
  %83 = trunc i8 %82 to i1
  %84 = zext i1 %83 to i32
  br label %85

85:                                               ; preds = %81, %76
  %86 = phi i32 [ %80, %76 ], [ %84, %81 ]
  %87 = icmp ne i32 %86, 0
  %88 = call i64 @BoolGetDatum(i1 noundef zeroext %87)
  store i64 %88, ptr %2, align 8
  store i32 1, ptr %10, align 4
  br label %102

89:                                               ; preds = %63
  %90 = load i8, ptr %8, align 1, !range !7, !noundef !8
  %91 = trunc i8 %90 to i1
  br i1 %91, label %92, label %97

92:                                               ; preds = %89
  %93 = load i32, ptr %4, align 4
  %94 = load i32, ptr %9, align 4
  %95 = icmp sle i32 %93, %94
  %96 = call i64 @BoolGetDatum(i1 noundef zeroext %95)
  store i64 %96, ptr %2, align 8
  store i32 1, ptr %10, align 4
  br label %102

97:                                               ; preds = %89
  %98 = load i32, ptr %4, align 4
  %99 = load i32, ptr %9, align 4
  %100 = icmp sge i32 %98, %99
  %101 = call i64 @BoolGetDatum(i1 noundef zeroext %100)
  store i64 %101, ptr %2, align 8
  store i32 1, ptr %10, align 4
  br label %102

102:                                              ; preds = %97, %92, %85
  call void @llvm.lifetime.end.p0(i64 4, ptr %9) #10
  call void @llvm.lifetime.end.p0(i64 1, ptr %8) #10
  call void @llvm.lifetime.end.p0(i64 1, ptr %7) #10
  call void @llvm.lifetime.end.p0(i64 4, ptr %6) #10
  call void @llvm.lifetime.end.p0(i64 4, ptr %5) #10
  call void @llvm.lifetime.end.p0(i64 4, ptr %4) #10
  %103 = load i64, ptr %2, align 8
  ret i64 %103
}