; Function Attrs: nounwind uwtable
define dso_local range(i64 0, 2) i64 @in_range_int4_int4(ptr noundef readonly captures(none) %0) #0 {
  %2 = getelementptr inbounds nuw i8, ptr %0, i64 32
  %3 = load i64, ptr %2, align 8
  %4 = trunc i64 %3 to i32
  %5 = getelementptr inbounds nuw i8, ptr %0, i64 64
  %6 = load i64, ptr %5, align 8
  %7 = trunc i64 %6 to i32
  %8 = getelementptr inbounds nuw i8, ptr %0, i64 80
  %9 = load i64, ptr %8, align 8
  %.not = icmp ne i64 %9, 0
  %10 = getelementptr inbounds nuw i8, ptr %0, i64 96
  %11 = load i64, ptr %10, align 8
  %12 = icmp ne i64 %11, 0
  %13 = icmp slt i32 %7, 0
  br i1 %13, label %14, label %18

14:                                               ; preds = %1
  %15 = tail call zeroext i1 @errstart_cold(i32 noundef 21, ptr noundef null) #15
  tail call void @llvm.assume(i1 %15)
  %16 = tail call i32 @errcode(i32 noundef 50593922) #13
  %17 = tail call i32 (ptr, ...) @errmsg(ptr noundef nonnull @.str.6) #13
  tail call void @errfinish(ptr noundef nonnull @.str.2, i32 noundef 635, ptr noundef nonnull @__func__.in_range_int4_int4) #13
  unreachable

18:                                               ; preds = %1
  %19 = getelementptr inbounds nuw i8, ptr %0, i64 48
  %20 = load i64, ptr %19, align 8
  %21 = trunc i64 %20 to i32
  %22 = sub nsw i32 0, %7
  %spec.select = select i1 %.not, i32 %22, i32 %7
  %23 = tail call { i32, i1 } @llvm.sadd.with.overflow.i32(i32 %21, i32 %spec.select)
  %24 = extractvalue { i32, i1 } %23, 1
  %25 = extractvalue { i32, i1 } %23, 0
  br i1 %24, label %26, label %27, !prof !14

26:                                               ; preds = %18
  %spec.select18 = xor i1 %.not, %12
  br label %32

27:                                               ; preds = %18
  br i1 %12, label %28, label %30

28:                                               ; preds = %27
  %29 = icmp sge i32 %25, %4
  br label %32

30:                                               ; preds = %27
  %31 = icmp sle i32 %25, %4
  br label %32

32:                                               ; preds = %30, %28, %26
  %.0.in = phi i1 [ %spec.select18, %26 ], [ %29, %28 ], [ %31, %30 ]
  %.0 = zext i1 %.0.in to i64
  ret i64 %.0
}